
/home/anton/scr1/build/verilator_AHB_MAX_imc_IPIC_1_TCM_1_VIRQ_1_TRACE_1/ma_addr.elf:     file format elf32-littleriscv


Disassembly of section .text.init:

00000000 <SIM_EXIT-0xf4>:
	...

000000f4 <SIM_EXIT>:
  f4:	00000013          	nop

000000f8 <SIM_STOP>:
  f8:	0000006f          	j	f8 <SIM_STOP>
  fc:	ffff                	0xffff
  fe:	ffff                	0xffff
	...

00000400 <trap_vector>:
 400:	34202e73          	csrr	t3,mcause
 404:	4e99                	li	t4,6
 406:	03de1063          	bne	t3,t4,426 <vector_logic>
 40a:	00001e17          	auipc	t3,0x1
 40e:	a96e0e13          	addi	t3,t3,-1386 # ea0 <output_string>
 412:	f0000eb7          	lui	t4,0xf0000

00000416 <print_loop>:
 416:	000e0f03          	lb	t5,0(t3)
 41a:	000f0663          	beqz	t5,426 <vector_logic>
 41e:	01ee8023          	sb	t5,0(t4) # f0000000 <__global_pointer$+0xefffe7b8>
 422:	0e05                	addi	t3,t3,1
 424:	bfcd                	j	416 <print_loop>

00000426 <vector_logic>:
 426:	34202773          	csrr	a4,mcause
 42a:	47a1                	li	a5,8
 42c:	02f70463          	beq	a4,a5,454 <_report>
 430:	47a5                	li	a5,9
 432:	02f70163          	beq	a4,a5,454 <_report>
 436:	47ad                	li	a5,11
 438:	00f70e63          	beq	a4,a5,454 <_report>
 43c:	00001717          	auipc	a4,0x1
 440:	9ec70713          	addi	a4,a4,-1556 # e28 <mtvec_handler>
 444:	c311                	beqz	a4,448 <vector_logic+0x22>
 446:	8702                	jr	a4
 448:	34202773          	csrr	a4,mcause
 44c:	00075363          	bgez	a4,452 <handle_exception>
 450:	a009                	j	452 <handle_exception>

00000452 <handle_exception>:
 452:	4505                	li	a0,1

00000454 <_report>:
 454:	20d0006f          	j	e60 <sc_exit>
 458:	00000013          	nop
 45c:	00000013          	nop
 460:	00000013          	nop
 464:	00000013          	nop
 468:	00000013          	nop
 46c:	00000013          	nop
 470:	00000013          	nop
 474:	00000013          	nop
 478:	00000013          	nop
 47c:	00000013          	nop
	...

Disassembly of section .text.reset:

00000c00 <_start>:
 c00:	f1402573          	csrr	a0,mhartid
 c04:	e101                	bnez	a0,c04 <_start+0x4>
 c06:	4e01                	li	t3,0
 c08:	fffff297          	auipc	t0,0xfffff
 c0c:	7f828293          	addi	t0,t0,2040 # 400 <STACK_SIZE>
 c10:	30529073          	csrw	mtvec,t0
 c14:	4505                	li	a0,1
 c16:	057e                	slli	a0,a0,0x1f
 c18:	00054863          	bltz	a0,c28 <_start+0x28>
 c1c:	0ff0000f          	fence
 c20:	85f2                	mv	a1,t3
 c22:	4501                	li	a0,0
 c24:	00000073          	ecall
 c28:	00000293          	li	t0,0
 c2c:	00028f63          	beqz	t0,c4a <_start+0x4a>
 c30:	10529073          	csrw	stvec,t0
 c34:	62ad                	lui	t0,0xb
 c36:	10928293          	addi	t0,t0,265 # b109 <__global_pointer$+0x98c1>
 c3a:	30229073          	csrw	medeleg,t0
 c3e:	30202373          	csrr	t1,medeleg
 c42:	00628463          	beq	t0,t1,c4a <_start+0x4a>
 c46:	80dff06f          	j	452 <handle_exception>
 c4a:	30005073          	csrwi	mstatus,0
 c4e:	6509                	lui	a0,0x2
 c50:	80050513          	addi	a0,a0,-2048 # 1800 <_end+0x7a0>
 c54:	30052073          	csrs	mstatus,a0
 c58:	00000297          	auipc	t0,0x0
 c5c:	02828293          	addi	t0,t0,40 # c80 <_run_test>
 c60:	34129073          	csrw	mepc,t0
 c64:	f1402573          	csrr	a0,mhartid
 c68:	30200073          	mret

Disassembly of section .text:

00000c80 <_run_test>:
 c80:	00000417          	auipc	s0,0x0
 c84:	25040413          	addi	s0,s0,592 # ed0 <begin_signature>
 c88:	00400493          	li	s1,4
 c8c:	00200e13          	li	t3,2
 c90:	00000397          	auipc	t2,0x0
 c94:	01c38393          	addi	t2,t2,28 # cac <_run_test+0x2c>
 c98:	00140313          	addi	t1,s0,1
 c9c:	00141303          	lh	t1,1(s0)
 ca0:	ffffc3b7          	lui	t2,0xffffc
 ca4:	bcc38393          	addi	t2,t2,-1076 # ffffbbcc <__global_pointer$+0xffffa384>
 ca8:	14731e63          	bne	t1,t2,e04 <fail>
 cac:	00300e13          	li	t3,3
 cb0:	00000397          	auipc	t2,0x0
 cb4:	01c38393          	addi	t2,t2,28 # ccc <_run_test+0x4c>
 cb8:	00140313          	addi	t1,s0,1
 cbc:	00145303          	lhu	t1,1(s0)
 cc0:	0000c3b7          	lui	t2,0xc
 cc4:	bcc38393          	addi	t2,t2,-1076 # bbcc <__global_pointer$+0xa384>
 cc8:	12731e63          	bne	t1,t2,e04 <fail>
 ccc:	00400e13          	li	t3,4
 cd0:	00000397          	auipc	t2,0x0
 cd4:	01c38393          	addi	t2,t2,28 # cec <_run_test+0x6c>
 cd8:	00140313          	addi	t1,s0,1
 cdc:	00142303          	lw	t1,1(s0)
 ce0:	99aac3b7          	lui	t2,0x99aac
 ce4:	bcc38393          	addi	t2,t2,-1076 # 99aabbcc <__global_pointer$+0x99aaa384>
 ce8:	10731e63          	bne	t1,t2,e04 <fail>
 cec:	00500e13          	li	t3,5
 cf0:	00000397          	auipc	t2,0x0
 cf4:	01c38393          	addi	t2,t2,28 # d0c <_run_test+0x8c>
 cf8:	00240313          	addi	t1,s0,2
 cfc:	00242303          	lw	t1,2(s0)
 d00:	8899b3b7          	lui	t2,0x8899b
 d04:	abb38393          	addi	t2,t2,-1349 # 8899aabb <__global_pointer$+0x88999273>
 d08:	0e731e63          	bne	t1,t2,e04 <fail>
 d0c:	00600e13          	li	t3,6
 d10:	00000397          	auipc	t2,0x0
 d14:	01c38393          	addi	t2,t2,28 # d2c <_run_test+0xac>
 d18:	00340313          	addi	t1,s0,3
 d1c:	00342303          	lw	t1,3(s0)
 d20:	7788a3b7          	lui	t2,0x7788a
 d24:	9aa38393          	addi	t2,t2,-1622 # 778899aa <__global_pointer$+0x77888162>
 d28:	0c731e63          	bne	t1,t2,e04 <fail>
 d2c:	00600493          	li	s1,6
 d30:	01600e13          	li	t3,22
 d34:	00000397          	auipc	t2,0x0
 d38:	03038393          	addi	t2,t2,48 # d64 <_run_test+0xe4>
 d3c:	00140313          	addi	t1,s0,1
 d40:	000410a3          	sh	zero,1(s0)
 d44:	00040303          	lb	t1,0(s0)
 d48:	0a030e63          	beqz	t1,e04 <fail>
 d4c:	00340303          	lb	t1,3(s0)
 d50:	0a030a63          	beqz	t1,e04 <fail>
 d54:	00140303          	lb	t1,1(s0)
 d58:	0a031663          	bnez	t1,e04 <fail>
 d5c:	00240303          	lb	t1,2(s0)
 d60:	0a031263          	bnez	t1,e04 <fail>
 d64:	01700e13          	li	t3,23
 d68:	00000397          	auipc	t2,0x0
 d6c:	03038393          	addi	t2,t2,48 # d98 <_run_test+0x118>
 d70:	00540313          	addi	t1,s0,5
 d74:	000422a3          	sw	zero,5(s0)
 d78:	00440303          	lb	t1,4(s0)
 d7c:	08030463          	beqz	t1,e04 <fail>
 d80:	00940303          	lb	t1,9(s0)
 d84:	08030063          	beqz	t1,e04 <fail>
 d88:	00540303          	lb	t1,5(s0)
 d8c:	06031c63          	bnez	t1,e04 <fail>
 d90:	00840303          	lb	t1,8(s0)
 d94:	06031863          	bnez	t1,e04 <fail>
 d98:	01800e13          	li	t3,24
 d9c:	00000397          	auipc	t2,0x0
 da0:	03038393          	addi	t2,t2,48 # dcc <_run_test+0x14c>
 da4:	00a40313          	addi	t1,s0,10
 da8:	00042523          	sw	zero,10(s0)
 dac:	00940303          	lb	t1,9(s0)
 db0:	04030a63          	beqz	t1,e04 <fail>
 db4:	00e40303          	lb	t1,14(s0)
 db8:	04030663          	beqz	t1,e04 <fail>
 dbc:	00a40303          	lb	t1,10(s0)
 dc0:	04031263          	bnez	t1,e04 <fail>
 dc4:	00d40303          	lb	t1,13(s0)
 dc8:	02031e63          	bnez	t1,e04 <fail>
 dcc:	01900e13          	li	t3,25
 dd0:	00000397          	auipc	t2,0x0
 dd4:	03038393          	addi	t2,t2,48 # e00 <_run_test+0x180>
 dd8:	00f40313          	addi	t1,s0,15
 ddc:	000427a3          	sw	zero,15(s0)
 de0:	00e40303          	lb	t1,14(s0)
 de4:	02030063          	beqz	t1,e04 <fail>
 de8:	01340303          	lb	t1,19(s0)
 dec:	00030c63          	beqz	t1,e04 <fail>
 df0:	00f40303          	lb	t1,15(s0)
 df4:	00031863          	bnez	t1,e04 <fail>
 df8:	01240303          	lb	t1,18(s0)
 dfc:	00031463          	bnez	t1,e04 <fail>
 e00:	01c01a63          	bne	zero,t3,e14 <pass>

00000e04 <fail>:
 e04:	0ff0000f          	fence
 e08:	000e0593          	mv	a1,t3
 e0c:	00100513          	li	a0,1
 e10:	00000073          	ecall

00000e14 <pass>:
 e14:	0ff0000f          	fence
 e18:	000e0593          	mv	a1,t3
 e1c:	00000513          	li	a0,0
 e20:	00000073          	ecall
 e24:	00000013          	nop

00000e28 <mtvec_handler>:
 e28:	342022f3          	csrr	t0,mcause
 e2c:	fc929ce3          	bne	t0,s1,e04 <fail>
 e30:	343022f3          	csrr	t0,mtval
 e34:	fc6298e3          	bne	t0,t1,e04 <fail>
 e38:	00028283          	lb	t0,0(t0)
 e3c:	fc0284e3          	beqz	t0,e04 <fail>
 e40:	34139073          	csrw	mepc,t2
 e44:	30200073          	mret

00000e48 <ecall>:
 e48:	00000073          	ecall
	...

00000e60 <sc_exit>:
 e60:	fffff297          	auipc	t0,0xfffff
 e64:	29428293          	addi	t0,t0,660 # f4 <SIM_EXIT>
 e68:	8282                	jr	t0
 e6a:	00000013          	nop
 e6e:	00000013          	nop
 e72:	00000013          	nop
 e76:	00000013          	nop
 e7a:	00000013          	nop
 e7e:	0001                	nop
	...

Disassembly of section .tohost:

00001000 <tohost>:
	...

00001040 <fromhost>:
	...
